target datalayout = "e-m:e-p270:32:32-p271:32:32-p272:64:64-i64:64-i128:128-f80:128-n8:16:32:64-S128"
target triple = "x86_64-pc-linux-gnu"

%struct._lv_keyboard_t = type { %struct._lv_buttonmatrix_t, ptr, i32, i8 }
%struct._lv_buttonmatrix_t = type { %struct._lv_obj_t, ptr, ptr, ptr, i32, i32, i32, i8 }
%struct._lv_obj_t = type { ptr, ptr, ptr, ptr, ptr, %struct.lv_area_t, i32, i16, i16 }
%struct.lv_area_t = type { i32, i32, i32, i32 }

@kb_map = internal global [10 x ptr] [ptr @default_kb_map_lc, ptr @default_kb_map_uc, ptr @default_kb_map_spec, ptr @default_kb_map_num, ptr @default_kb_map_lc, ptr @default_kb_map_lc, ptr @default_kb_map_lc, ptr @default_kb_map_lc, ptr null, ptr null], align 16

; Function Attrs: nounwind uwtable
define internal void @lv_keyboard_update_map(ptr noundef %0) #0 {
  %2 = alloca ptr, align 8
  %3 = alloca ptr, align 8
  store ptr %0, ptr %2, align 8, !tbaa !8
  call void @llvm.lifetime.start.p0(i64 8, ptr %3) #3
  %4 = load ptr, ptr %2, align 8, !tbaa !8
  store ptr %4, ptr %3, align 8, !tbaa !10
  %5 = load ptr, ptr %2, align 8, !tbaa !8
  %6 = load ptr, ptr %3, align 8, !tbaa !10
  %7 = getelementptr inbounds nuw %struct._lv_keyboard_t, ptr %6, i32 0, i32 2
  %8 = load i32, ptr %7, align 8, !tbaa !22
  %9 = zext i32 %8 to i64
  %10 = getelementptr inbounds nuw [10 x ptr], ptr @kb_map, i64 0, i64 %9
  %11 = load ptr, ptr %10, align 8, !tbaa !24
  call void @lv_buttonmatrix_set_map(ptr noundef %5, ptr noundef %11)
  %12 = load ptr, ptr %2, align 8, !tbaa !8
  call void @lv_keyboard_update_ctrl_map(ptr noundef %12)
  call void @llvm.lifetime.end.p0(i64 8, ptr %3) #3
  ret void
}

; Function Attrs: nounwind uwtable
define void @lv_keyboard_set_mode(ptr noundef %0, i32 noundef %1) #0 {
  %3 = alloca ptr, align 8
  %4 = alloca i32, align 4
  %5 = alloca ptr, align 8
  %6 = alloca i32, align 4
  store ptr %0, ptr %3, align 8, !tbaa !8
  store i32 %1, ptr %4, align 4, !tbaa !23
  br label %7

7:                                                ; preds = %2
  %8 = load ptr, ptr %3, align 8, !tbaa !8
  %9 = icmp ne ptr %8, null
  br i1 %9, label %14, label %10

10:                                               ; preds = %7
  br label %11

11:                                               ; preds = %10
  br label %12

12:                                               ; preds = %11
  br label %13

13:                                               ; preds = %12, %13
  br label %13

14:                                               ; preds = %7
  br label %15

15:                                               ; preds = %14
  call void @llvm.lifetime.start.p0(i64 8, ptr %5) #3
  %16 = load ptr, ptr %3, align 8, !tbaa !8
  store ptr %16, ptr %5, align 8, !tbaa !10
  %17 = load ptr, ptr %5, align 8, !tbaa !10
  %18 = getelementptr inbounds nuw %struct._lv_keyboard_t, ptr %17, i32 0, i32 2
  %19 = load i32, ptr %18, align 8, !tbaa !22
  %20 = load i32, ptr %4, align 4, !tbaa !23
  %21 = icmp eq i32 %19, %20
  br i1 %21, label %22, label %23

22:                                               ; preds = %15
  store i32 1, ptr %6, align 4
  br label %28

23:                                               ; preds = %15
  %24 = load i32, ptr %4, align 4, !tbaa !23
  %25 = load ptr, ptr %5, align 8, !tbaa !10
  %26 = getelementptr inbounds nuw %struct._lv_keyboard_t, ptr %25, i32 0, i32 2
  store i32 %24, ptr %26, align 8, !tbaa !22
  %27 = load ptr, ptr %3, align 8, !tbaa !8
  call void @lv_keyboard_update_map(ptr noundef %27)
  store i32 0, ptr %6, align 4
  br label %28

28:                                               ; preds = %23, %22
  call void @llvm.lifetime.end.p0(i64 8, ptr %5) #3
  %29 = load i32, ptr %6, align 4
  switch i32 %29, label %31 [
    i32 0, label %30
    i32 1, label %30
  ]

30:                                               ; preds = %28, %28
  ret void

31:                                               ; preds = %28
  unreachable
}