; Function Attrs: nounwind uwtable
define void @lv_keyboard_set_mode(ptr noundef %0, i32 noundef %1) local_unnamed_addr #0 {
  %.not = icmp eq ptr %0, null
  br i1 %.not, label %.preheader, label %3

.preheader:                                       ; preds = %2, %.preheader
  br label %.preheader

3:                                                ; preds = %2
  %4 = getelementptr inbounds nuw i8, ptr %0, i64 112
  %5 = load i32, ptr %4, align 8, !tbaa !18
  %6 = icmp eq i32 %5, %1
  br i1 %6, label %11, label %7

7:                                                ; preds = %3
  store i32 %1, ptr %4, align 8, !tbaa !18
  %8 = zext i32 %1 to i64
  %9 = getelementptr inbounds nuw [10 x ptr], ptr @kb_map, i64 0, i64 %8
  %10 = load ptr, ptr %9, align 8, !tbaa !19
  tail call void @lv_buttonmatrix_set_map(ptr noundef nonnull %0, ptr noundef %10) #4
  tail call fastcc void @lv_keyboard_update_ctrl_map(ptr noundef nonnull %0)
  br label %11

11:                                               ; preds = %3, %7
  ret void
}